#include <math.h>
#include <stdio.h>
#include <stdlib.h>
#include <string.h>
#define LEN 100
#define ASCII 100
#define MAX_N 100
#define MAX_M 100
#define MAX 100
#define ASC 100
#define null 0
#define Len 100
#define SUM 100
#define NUMBER 100
#define SIZE 100
#define MAXN 100
#define MAXSIZE 100
#define maxrow 100
#define maxcol 100
#define mx 100
#define NUM 100
#define ROW 100
#define COL 100
#define SIZEE 100
#define MAX_LEN 100
#define LIU 100
#define maxsize 100
#define NUM 100
#define NO 100
#define Null 0
#define ID_DIGITS 100
#define INT_MAX 100
#define INT_MIN 100
#define FALSE 0
#define TRUE 1
#define hang 100
#define lie 100
#define lll 100
#define LEM 100
#define K 100
#define INF 100
#define MONTH 12
#define true 1
#define PI 100
#define maxlen 100
#define maxinputint 100
#define STUDENT_NUM 100
#define length 100
#define Flag 1
int main()
{
	int a[1000],n;
	char c;
	int i,j,t,k;
	k=0;
	n=0;
	while(true)
	{
		scanf("%d",&a[n++]);
		scanf("%c", &c);
		if(c == '\n')
			break;
	}
	if(n==1)
		printf("No");
	else
	{{for(j=0;j<n-1;j++)
		{
			for(i=0;i<n-1-j;i++) 
			{
				if(a[i]>a[i+1])
				{t=a[i];a[i]=a[i+1];a[i+1]=t;}
			} 
	}}

for(i=n-2;i>=0;i--)
{if(a[i]<a[n-1])
{ printf("%d",a[i]);
break;}}
for(i=n-2;i>=0;i--)
{if(a[i]==a[n-1])
k=k+1;
}
if(k==n-1)
printf("No");}
	return 0;
}